; Function Attrs: mustprogress nounwind uwtable
define noundef zeroext i1 @_ZN5folly14AsyncUDPSocket18updateRegistrationEv(ptr noundef nonnull align 16 dereferenceable(768) %0) local_unnamed_addr #0 align 2 personality ptr @__gxx_personality_v0 {
  %2 = getelementptr inbounds nuw i8, ptr %0, i64 192
  %3 = load ptr, ptr %2, align 16, !tbaa !155
  %.not = icmp eq ptr %3, null
  %spec.select = select i1 %.not, i16 16, i16 18
  %4 = invoke noundef zeroext i1 @_ZN5folly12EventHandler12registerImplEtb(ptr noundef nonnull align 8 dereferenceable(184) %0, i16 noundef zeroext %spec.select, i1 noundef zeroext false)
          to label %_ZN5folly12EventHandler15registerHandlerEt.exit unwind label %5

_ZN5folly12EventHandler15registerHandlerEt.exit:  ; preds = %1
  ret i1 %4

5:                                                ; preds = %1
  %6 = landingpad { ptr, i32 }
          catch ptr null
  %7 = extractvalue { ptr, i32 } %6, 0
  tail call void @__clang_call_terminate(ptr %7) #38
  unreachable
}